target datalayout = "e-m:e-p270:32:32-p271:32:32-p272:64:64-i64:64-i128:128-f80:128-n8:16:32:64-S128"
target triple = "x86_64-pc-linux-gnu"

%struct.code = type { i8, i8, i16 }
%struct.z_stream_s = type { ptr, i32, i64, ptr, i32, i64, ptr, ptr, ptr, ptr, ptr, i32, i64, i64, i32 }
%struct.inflate_state = type { i32, i32, i32, i32, i32, i32, i64, i64, ptr, i32, i32, i32, i32, ptr, i64, i32, i32, i32, i32, ptr, ptr, i32, i32, i32, i32, i32, i32, ptr, [320 x i16], [288 x i16], [1444 x %struct.code], i32, i32, i32 }

; Function Attrs: nounwind uwtable
define i32 @MOZ_Z_inflateCopy(ptr noundef %0, ptr noundef %1) #0 {
  %3 = alloca i32, align 4
  %4 = alloca ptr, align 8
  %5 = alloca ptr, align 8
  %6 = alloca ptr, align 8
  %7 = alloca ptr, align 8
  %8 = alloca ptr, align 8
  %9 = alloca i32, align 4
  %10 = alloca i32, align 4
  store ptr %0, ptr %4, align 8, !tbaa !3
  store ptr %1, ptr %5, align 8, !tbaa !3
  call void @llvm.lifetime.start.p0(i64 8, ptr %6) #4
  call void @llvm.lifetime.start.p0(i64 8, ptr %7) #4
  call void @llvm.lifetime.start.p0(i64 8, ptr %8) #4
  call void @llvm.lifetime.start.p0(i64 4, ptr %9) #4
  %11 = load ptr, ptr %4, align 8, !tbaa !3
  %12 = icmp eq ptr %11, null
  br i1 %12, label %31, label %13

13:                                               ; preds = %2
  %14 = load ptr, ptr %5, align 8, !tbaa !3
  %15 = icmp eq ptr %14, null
  br i1 %15, label %31, label %16

16:                                               ; preds = %13
  %17 = load ptr, ptr %5, align 8, !tbaa !3
  %18 = getelementptr inbounds nuw %struct.z_stream_s, ptr %17, i32 0, i32 7
  %19 = load ptr, ptr %18, align 8, !tbaa !8
  %20 = icmp eq ptr %19, null
  br i1 %20, label %31, label %21

21:                                               ; preds = %16
  %22 = load ptr, ptr %5, align 8, !tbaa !3
  %23 = getelementptr inbounds nuw %struct.z_stream_s, ptr %22, i32 0, i32 8
  %24 = load ptr, ptr %23, align 8, !tbaa !46
  %25 = icmp eq ptr %24, null
  br i1 %25, label %31, label %26

26:                                               ; preds = %21
  %27 = load ptr, ptr %5, align 8, !tbaa !3
  %28 = getelementptr inbounds nuw %struct.z_stream_s, ptr %27, i32 0, i32 9
  %29 = load ptr, ptr %28, align 8, !tbaa !42
  %30 = icmp eq ptr %29, null
  br i1 %30, label %31, label %32

31:                                               ; preds = %26, %21, %16, %13, %2
  store i32 -2, ptr %3, align 4
  store i32 1, ptr %10, align 4
  br label %166

32:                                               ; preds = %26
  %33 = load ptr, ptr %5, align 8, !tbaa !3
  %34 = getelementptr inbounds nuw %struct.z_stream_s, ptr %33, i32 0, i32 7
  %35 = load ptr, ptr %34, align 8, !tbaa !8
  store ptr %35, ptr %6, align 8, !tbaa !14
  %36 = load ptr, ptr %5, align 8, !tbaa !3
  %37 = getelementptr inbounds nuw %struct.z_stream_s, ptr %36, i32 0, i32 8
  %38 = load ptr, ptr %37, align 8, !tbaa !46
  %39 = load ptr, ptr %5, align 8, !tbaa !3
  %40 = getelementptr inbounds nuw %struct.z_stream_s, ptr %39, i32 0, i32 10
  %41 = load ptr, ptr %40, align 8, !tbaa !43
  %42 = call ptr %38(ptr noundef %41, i32 noundef 1, i32 noundef 7152)
  store ptr %42, ptr %7, align 8, !tbaa !14
  %43 = load ptr, ptr %7, align 8, !tbaa !14
  %44 = icmp eq ptr %43, null
  br i1 %44, label %45, label %46

45:                                               ; preds = %32
  store i32 -4, ptr %3, align 4
  store i32 1, ptr %10, align 4
  br label %166

46:                                               ; preds = %32
  store ptr null, ptr %8, align 8, !tbaa !44
  %47 = load ptr, ptr %6, align 8, !tbaa !14
  %48 = getelementptr inbounds nuw %struct.inflate_state, ptr %47, i32 0, i32 13
  %49 = load ptr, ptr %48, align 8, !tbaa !40
  %50 = icmp ne ptr %49, null
  br i1 %50, label %51, label %74

51:                                               ; preds = %46
  %52 = load ptr, ptr %5, align 8, !tbaa !3
  %53 = getelementptr inbounds nuw %struct.z_stream_s, ptr %52, i32 0, i32 8
  %54 = load ptr, ptr %53, align 8, !tbaa !46
  %55 = load ptr, ptr %5, align 8, !tbaa !3
  %56 = getelementptr inbounds nuw %struct.z_stream_s, ptr %55, i32 0, i32 10
  %57 = load ptr, ptr %56, align 8, !tbaa !43
  %58 = load ptr, ptr %6, align 8, !tbaa !14
  %59 = getelementptr inbounds nuw %struct.inflate_state, ptr %58, i32 0, i32 9
  %60 = load i32, ptr %59, align 8, !tbaa !41
  %61 = shl i32 1, %60
  %62 = call ptr %54(ptr noundef %57, i32 noundef %61, i32 noundef 1)
  store ptr %62, ptr %8, align 8, !tbaa !44
  %63 = load ptr, ptr %8, align 8, !tbaa !44
  %64 = icmp eq ptr %63, null
  br i1 %64, label %65, label %73

65:                                               ; preds = %51
  %66 = load ptr, ptr %5, align 8, !tbaa !3
  %67 = getelementptr inbounds nuw %struct.z_stream_s, ptr %66, i32 0, i32 9
  %68 = load ptr, ptr %67, align 8, !tbaa !42
  %69 = load ptr, ptr %5, align 8, !tbaa !3
  %70 = getelementptr inbounds nuw %struct.z_stream_s, ptr %69, i32 0, i32 10
  %71 = load ptr, ptr %70, align 8, !tbaa !43
  %72 = load ptr, ptr %7, align 8, !tbaa !14
  call void %68(ptr noundef %71, ptr noundef %72)
  store i32 -4, ptr %3, align 4
  store i32 1, ptr %10, align 4
  br label %166

73:                                               ; preds = %51
  br label %74

74:                                               ; preds = %73, %46
  %75 = load ptr, ptr %4, align 8, !tbaa !3
  %76 = load ptr, ptr %5, align 8, !tbaa !3
  call void @llvm.memcpy.p0.p0.i64(ptr align 1 %75, ptr align 1 %76, i64 120, i1 false)
  %77 = load ptr, ptr %7, align 8, !tbaa !14
  %78 = load ptr, ptr %6, align 8, !tbaa !14
  call void @llvm.memcpy.p0.p0.i64(ptr align 1 %77, ptr align 1 %78, i64 7152, i1 false)
  %79 = load ptr, ptr %6, align 8, !tbaa !14
  %80 = getelementptr inbounds nuw %struct.inflate_state, ptr %79, i32 0, i32 19
  %81 = load ptr, ptr %80, align 8, !tbaa !33
  %82 = load ptr, ptr %6, align 8, !tbaa !14
  %83 = getelementptr inbounds nuw %struct.inflate_state, ptr %82, i32 0, i32 30
  %84 = getelementptr inbounds [1444 x %struct.code], ptr %83, i64 0, i64 0
  %85 = icmp uge ptr %81, %84
  br i1 %85, label %86, label %129

86:                                               ; preds = %74
  %87 = load ptr, ptr %6, align 8, !tbaa !14
  %88 = getelementptr inbounds nuw %struct.inflate_state, ptr %87, i32 0, i32 19
  %89 = load ptr, ptr %88, align 8, !tbaa !33
  %90 = load ptr, ptr %6, align 8, !tbaa !14
  %91 = getelementptr inbounds nuw %struct.inflate_state, ptr %90, i32 0, i32 30
  %92 = getelementptr inbounds [1444 x %struct.code], ptr %91, i64 0, i64 0
  %93 = getelementptr inbounds %struct.code, ptr %92, i64 1444
  %94 = getelementptr inbounds %struct.code, ptr %93, i64 -1
  %95 = icmp ule ptr %89, %94
  br i1 %95, label %96, label %129

96:                                               ; preds = %86
  %97 = load ptr, ptr %7, align 8, !tbaa !14
  %98 = getelementptr inbounds nuw %struct.inflate_state, ptr %97, i32 0, i32 30
  %99 = getelementptr inbounds [1444 x %struct.code], ptr %98, i64 0, i64 0
  %100 = load ptr, ptr %6, align 8, !tbaa !14
  %101 = getelementptr inbounds nuw %struct.inflate_state, ptr %100, i32 0, i32 19
  %102 = load ptr, ptr %101, align 8, !tbaa !33
  %103 = load ptr, ptr %6, align 8, !tbaa !14
  %104 = getelementptr inbounds nuw %struct.inflate_state, ptr %103, i32 0, i32 30
  %105 = getelementptr inbounds [1444 x %struct.code], ptr %104, i64 0, i64 0
  %106 = ptrtoint ptr %102 to i64
  %107 = ptrtoint ptr %105 to i64
  %108 = sub i64 %106, %107
  %109 = sdiv exact i64 %108, 4
  %110 = getelementptr inbounds %struct.code, ptr %99, i64 %109
  %111 = load ptr, ptr %7, align 8, !tbaa !14
  %112 = getelementptr inbounds nuw %struct.inflate_state, ptr %111, i32 0, i32 19
  store ptr %110, ptr %112, align 8, !tbaa !33
  %113 = load ptr, ptr %7, align 8, !tbaa !14
  %114 = getelementptr inbounds nuw %struct.inflate_state, ptr %113, i32 0, i32 30
  %115 = getelementptr inbounds [1444 x %struct.code], ptr %114, i64 0, i64 0
  %116 = load ptr, ptr %6, align 8, !tbaa !14
  %117 = getelementptr inbounds nuw %struct.inflate_state, ptr %116, i32 0, i32 20
  %118 = load ptr, ptr %117, align 8, !tbaa !32
  %119 = load ptr, ptr %6, align 8, !tbaa !14
  %120 = getelementptr inbounds nuw %struct.inflate_state, ptr %119, i32 0, i32 30
  %121 = getelementptr inbounds [1444 x %struct.code], ptr %120, i64 0, i64 0
  %122 = ptrtoint ptr %118 to i64
  %123 = ptrtoint ptr %121 to i64
  %124 = sub i64 %122, %123
  %125 = sdiv exact i64 %124, 4
  %126 = getelementptr inbounds %struct.code, ptr %115, i64 %125
  %127 = load ptr, ptr %7, align 8, !tbaa !14
  %128 = getelementptr inbounds nuw %struct.inflate_state, ptr %127, i32 0, i32 20
  store ptr %126, ptr %128, align 8, !tbaa !32
  br label %129

129:                                              ; preds = %96, %86, %74
  %130 = load ptr, ptr %7, align 8, !tbaa !14
  %131 = getelementptr inbounds nuw %struct.inflate_state, ptr %130, i32 0, i32 30
  %132 = getelementptr inbounds [1444 x %struct.code], ptr %131, i64 0, i64 0
  %133 = load ptr, ptr %6, align 8, !tbaa !14
  %134 = getelementptr inbounds nuw %struct.inflate_state, ptr %133, i32 0, i32 27
  %135 = load ptr, ptr %134, align 8, !tbaa !31
  %136 = load ptr, ptr %6, align 8, !tbaa !14
  %137 = getelementptr inbounds nuw %struct.inflate_state, ptr %136, i32 0, i32 30
  %138 = getelementptr inbounds [1444 x %struct.code], ptr %137, i64 0, i64 0
  %139 = ptrtoint ptr %135 to i64
  %140 = ptrtoint ptr %138 to i64
  %141 = sub i64 %139, %140
  %142 = sdiv exact i64 %141, 4
  %143 = getelementptr inbounds %struct.code, ptr %132, i64 %142
  %144 = load ptr, ptr %7, align 8, !tbaa !14
  %145 = getelementptr inbounds nuw %struct.inflate_state, ptr %144, i32 0, i32 27
  store ptr %143, ptr %145, align 8, !tbaa !31
  %146 = load ptr, ptr %8, align 8, !tbaa !44
  %147 = icmp ne ptr %146, null
  br i1 %147, label %148, label %159

148:                                              ; preds = %129
  %149 = load ptr, ptr %6, align 8, !tbaa !14
  %150 = getelementptr inbounds nuw %struct.inflate_state, ptr %149, i32 0, i32 9
  %151 = load i32, ptr %150, align 8, !tbaa !41
  %152 = shl i32 1, %151
  store i32 %152, ptr %9, align 4, !tbaa !39
  %153 = load ptr, ptr %8, align 8, !tbaa !44
  %154 = load ptr, ptr %6, align 8, !tbaa !14
  %155 = getelementptr inbounds nuw %struct.inflate_state, ptr %154, i32 0, i32 13
  %156 = load ptr, ptr %155, align 8, !tbaa !40
  %157 = load i32, ptr %9, align 4, !tbaa !39
  %158 = zext i32 %157 to i64
  call void @llvm.memcpy.p0.p0.i64(ptr align 1 %153, ptr align 1 %156, i64 %158, i1 false)
  br label %159

159:                                              ; preds = %148, %129
  %160 = load ptr, ptr %8, align 8, !tbaa !44
  %161 = load ptr, ptr %7, align 8, !tbaa !14
  %162 = getelementptr inbounds nuw %struct.inflate_state, ptr %161, i32 0, i32 13
  store ptr %160, ptr %162, align 8, !tbaa !40
  %163 = load ptr, ptr %7, align 8, !tbaa !14
  %164 = load ptr, ptr %4, align 8, !tbaa !3
  %165 = getelementptr inbounds nuw %struct.z_stream_s, ptr %164, i32 0, i32 7
  store ptr %163, ptr %165, align 8, !tbaa !8
  store i32 0, ptr %3, align 4
  store i32 1, ptr %10, align 4
  br label %166

166:                                              ; preds = %159, %65, %45, %31
  call void @llvm.lifetime.end.p0(i64 4, ptr %9) #4
  call void @llvm.lifetime.end.p0(i64 8, ptr %8) #4
  call void @llvm.lifetime.end.p0(i64 8, ptr %7) #4
  call void @llvm.lifetime.end.p0(i64 8, ptr %6) #4
  %167 = load i32, ptr %3, align 4
  ret i32 %167
}